target datalayout = "e-m:e-p270:32:32-p271:32:32-p272:64:64-i64:64-i128:128-f80:128-n8:16:32:64-S128"
target triple = "x86_64-pc-linux-gnu"

%struct.ma_data_source_base = type { ptr, i64, i64, i64, i64, ptr, ptr, ptr, i32 }
%struct.ma_data_source_config = type { ptr }
%struct.ma_waveform_config = type { i32, i32, i32, i32, double, double }
%struct.ma_waveform = type { %struct.ma_data_source_base, %struct.ma_waveform_config, double, double }

; Function Attrs: nounwind uwtable
define internal double @ma_waveform__calculate_advance(i32 noundef %0, double noundef %1) #0 {
  %3 = alloca i32, align 4
  %4 = alloca double, align 8
  store i32 %0, ptr %3, align 4, !tbaa !8
  store double %1, ptr %4, align 8, !tbaa !403
  %5 = load i32, ptr %3, align 4, !tbaa !8
  %6 = uitofp i32 %5 to double
  %7 = load double, ptr %4, align 8, !tbaa !403
  %8 = fdiv double %6, %7
  %9 = fdiv double 1.000000e+00, %8
  ret double %9
}

; Function Attrs: nounwind uwtable
define i32 @ma_data_source_init(ptr noundef %0, ptr noundef %1) #0 {
  %3 = alloca i32, align 4
  %4 = alloca ptr, align 8
  %5 = alloca ptr, align 8
  %6 = alloca ptr, align 8
  %7 = alloca i32, align 4
  store ptr %0, ptr %4, align 8, !tbaa !25
  store ptr %1, ptr %5, align 8, !tbaa !25
  call void @llvm.lifetime.start.p0(i64 8, ptr %6) #16
  %8 = load ptr, ptr %5, align 8, !tbaa !25
  store ptr %8, ptr %6, align 8, !tbaa !25
  %9 = load ptr, ptr %5, align 8, !tbaa !25
  %10 = icmp eq ptr %9, null
  br i1 %10, label %11, label %12

11:                                               ; preds = %2
  store i32 -2, ptr %3, align 4
  store i32 1, ptr %7, align 4
  br label %38

12:                                               ; preds = %2
  %13 = load ptr, ptr %6, align 8, !tbaa !25
  call void @ma_zero_memory_default(ptr noundef %13, i64 noundef 72)
  %14 = load ptr, ptr %4, align 8, !tbaa !25
  %15 = icmp eq ptr %14, null
  br i1 %15, label %16, label %17

16:                                               ; preds = %12
  store i32 -2, ptr %3, align 4
  store i32 1, ptr %7, align 4
  br label %38

17:                                               ; preds = %12
  %18 = load ptr, ptr %4, align 8, !tbaa !25
  %19 = getelementptr inbounds nuw %struct.ma_data_source_config, ptr %18, i32 0, i32 0
  %20 = load ptr, ptr %19, align 8, !tbaa !60
  %21 = load ptr, ptr %6, align 8, !tbaa !25
  %22 = getelementptr inbounds nuw %struct.ma_data_source_base, ptr %21, i32 0, i32 0
  store ptr %20, ptr %22, align 8, !tbaa !853
  %23 = load ptr, ptr %6, align 8, !tbaa !25
  %24 = getelementptr inbounds nuw %struct.ma_data_source_base, ptr %23, i32 0, i32 1
  store i64 0, ptr %24, align 8, !tbaa !854
  %25 = load ptr, ptr %6, align 8, !tbaa !25
  %26 = getelementptr inbounds nuw %struct.ma_data_source_base, ptr %25, i32 0, i32 2
  store i64 -1, ptr %26, align 8, !tbaa !855
  %27 = load ptr, ptr %6, align 8, !tbaa !25
  %28 = getelementptr inbounds nuw %struct.ma_data_source_base, ptr %27, i32 0, i32 3
  store i64 0, ptr %28, align 8, !tbaa !856
  %29 = load ptr, ptr %6, align 8, !tbaa !25
  %30 = getelementptr inbounds nuw %struct.ma_data_source_base, ptr %29, i32 0, i32 4
  store i64 -1, ptr %30, align 8, !tbaa !857
  %31 = load ptr, ptr %5, align 8, !tbaa !25
  %32 = load ptr, ptr %6, align 8, !tbaa !25
  %33 = getelementptr inbounds nuw %struct.ma_data_source_base, ptr %32, i32 0, i32 5
  store ptr %31, ptr %33, align 8, !tbaa !858
  %34 = load ptr, ptr %6, align 8, !tbaa !25
  %35 = getelementptr inbounds nuw %struct.ma_data_source_base, ptr %34, i32 0, i32 6
  store ptr null, ptr %35, align 8, !tbaa !859
  %36 = load ptr, ptr %6, align 8, !tbaa !25
  %37 = getelementptr inbounds nuw %struct.ma_data_source_base, ptr %36, i32 0, i32 7
  store ptr null, ptr %37, align 8, !tbaa !860
  store i32 0, ptr %3, align 4
  store i32 1, ptr %7, align 4
  br label %38

38:                                               ; preds = %17, %16, %11
  call void @llvm.lifetime.end.p0(i64 8, ptr %6) #16
  %39 = load i32, ptr %3, align 4
  ret i32 %39
}

; Function Attrs: nounwind uwtable
define ptr @ma_data_source_config_init() #0 {
  %1 = alloca %struct.ma_data_source_config, align 8
  call void @ma_zero_memory_default(ptr noundef %1, i64 noundef 8)
  %2 = getelementptr inbounds nuw %struct.ma_data_source_config, ptr %1, i32 0, i32 0
  %3 = load ptr, ptr %2, align 8
  ret ptr %3
}

; Function Attrs: alwaysinline nounwind uwtable
define internal void @ma_zero_memory_default(ptr noundef %0, i64 noundef %1) #7 {
  %3 = alloca ptr, align 8
  %4 = alloca i64, align 8
  store ptr %0, ptr %3, align 8, !tbaa !25
  store i64 %1, ptr %4, align 8, !tbaa !12
  %5 = load ptr, ptr %3, align 8, !tbaa !25
  %6 = icmp eq ptr %5, null
  br i1 %6, label %7, label %8

7:                                                ; preds = %2
  br label %14

8:                                                ; preds = %2
  %9 = load i64, ptr %4, align 8, !tbaa !12
  %10 = icmp ugt i64 %9, 0
  br i1 %10, label %11, label %14

11:                                               ; preds = %8
  %12 = load ptr, ptr %3, align 8, !tbaa !25
  %13 = load i64, ptr %4, align 8, !tbaa !12
  call void @llvm.memset.p0.i64(ptr align 1 %12, i8 0, i64 %13, i1 false)
  br label %14

14:                                               ; preds = %7, %11, %8
  ret void
}

; Function Attrs: nounwind uwtable
define i32 @ma_waveform_init(ptr noundef %0, ptr noundef %1) #0 {
  %3 = alloca i32, align 4
  %4 = alloca ptr, align 8
  %5 = alloca ptr, align 8
  %6 = alloca i32, align 4
  %7 = alloca %struct.ma_data_source_config, align 8
  %8 = alloca i32, align 4
  %9 = alloca %struct.ma_data_source_config, align 8
  store ptr %0, ptr %4, align 8, !tbaa !25
  store ptr %1, ptr %5, align 8, !tbaa !25
  call void @llvm.lifetime.start.p0(i64 4, ptr %6) #16
  call void @llvm.lifetime.start.p0(i64 8, ptr %7) #16
  %10 = load ptr, ptr %5, align 8, !tbaa !25
  %11 = icmp eq ptr %10, null
  br i1 %11, label %12, label %13

12:                                               ; preds = %2
  store i32 -2, ptr %3, align 4
  store i32 1, ptr %8, align 4
  br label %42

13:                                               ; preds = %2
  %14 = load ptr, ptr %5, align 8, !tbaa !25
  call void @ma_zero_memory_default(ptr noundef %14, i64 noundef 120)
  call void @llvm.lifetime.start.p0(i64 8, ptr %9) #16
  %15 = call ptr @ma_data_source_config_init()
  %16 = getelementptr inbounds nuw %struct.ma_data_source_config, ptr %9, i32 0, i32 0
  store ptr %15, ptr %16, align 8
  call void @llvm.memcpy.p0.p0.i64(ptr align 8 %7, ptr align 8 %9, i64 8, i1 false), !tbaa.struct !871
  call void @llvm.lifetime.end.p0(i64 8, ptr %9) #16
  %17 = getelementptr inbounds nuw %struct.ma_data_source_config, ptr %7, i32 0, i32 0
  store ptr @g_ma_waveform_data_source_vtable, ptr %17, align 8, !tbaa !60
  %18 = load ptr, ptr %5, align 8, !tbaa !25
  %19 = getelementptr inbounds nuw %struct.ma_waveform, ptr %18, i32 0, i32 0
  %20 = call i32 @ma_data_source_init(ptr noundef %7, ptr noundef %19)
  store i32 %20, ptr %6, align 4, !tbaa !8
  %21 = load i32, ptr %6, align 4, !tbaa !8
  %22 = icmp ne i32 %21, 0
  br i1 %22, label %23, label %25

23:                                               ; preds = %13
  %24 = load i32, ptr %6, align 4, !tbaa !8
  store i32 %24, ptr %3, align 4
  store i32 1, ptr %8, align 4
  br label %42

25:                                               ; preds = %13
  %26 = load ptr, ptr %5, align 8, !tbaa !25
  %27 = getelementptr inbounds nuw %struct.ma_waveform, ptr %26, i32 0, i32 1
  %28 = load ptr, ptr %4, align 8, !tbaa !25
  call void @llvm.memcpy.p0.p0.i64(ptr align 8 %27, ptr align 8 %28, i64 32, i1 false), !tbaa.struct !1111
  %29 = load ptr, ptr %5, align 8, !tbaa !25
  %30 = getelementptr inbounds nuw %struct.ma_waveform, ptr %29, i32 0, i32 1
  %31 = getelementptr inbounds nuw %struct.ma_waveform_config, ptr %30, i32 0, i32 2
  %32 = load i32, ptr %31, align 8, !tbaa !1112
  %33 = load ptr, ptr %5, align 8, !tbaa !25
  %34 = getelementptr inbounds nuw %struct.ma_waveform, ptr %33, i32 0, i32 1
  %35 = getelementptr inbounds nuw %struct.ma_waveform_config, ptr %34, i32 0, i32 5
  %36 = load double, ptr %35, align 8, !tbaa !1114
  %37 = call double @ma_waveform__calculate_advance(i32 noundef %32, double noundef %36)
  %38 = load ptr, ptr %5, align 8, !tbaa !25
  %39 = getelementptr inbounds nuw %struct.ma_waveform, ptr %38, i32 0, i32 2
  store double %37, ptr %39, align 8, !tbaa !1115
  %40 = load ptr, ptr %5, align 8, !tbaa !25
  %41 = getelementptr inbounds nuw %struct.ma_waveform, ptr %40, i32 0, i32 3
  store double 0.000000e+00, ptr %41, align 8, !tbaa !1116
  store i32 0, ptr %3, align 4
  store i32 1, ptr %8, align 4
  br label %42

42:                                               ; preds = %25, %23, %12
  call void @llvm.lifetime.end.p0(i64 8, ptr %7) #16
  call void @llvm.lifetime.end.p0(i64 4, ptr %6) #16
  %43 = load i32, ptr %3, align 4
  ret i32 %43
}

; Function Attrs: nounwind uwtable
define void @ma_waveform_config_init(ptr dead_on_unwind noalias writable sret(%struct.ma_waveform_config) align 8 %0, i32 noundef %1, i32 noundef %2, i32 noundef %3, i32 noundef %4, double noundef %5, double noundef %6) #0 {
  %8 = alloca i32, align 4
  %9 = alloca i32, align 4
  %10 = alloca i32, align 4
  %11 = alloca i32, align 4
  %12 = alloca double, align 8
  %13 = alloca double, align 8
  store i32 %1, ptr %8, align 4, !tbaa !8
  store i32 %2, ptr %9, align 4, !tbaa !8
  store i32 %3, ptr %10, align 4, !tbaa !8
  store i32 %4, ptr %11, align 4, !tbaa !8
  store double %5, ptr %12, align 8, !tbaa !403
  store double %6, ptr %13, align 8, !tbaa !403
  call void @ma_zero_memory_default(ptr noundef %0, i64 noundef 32)
  %14 = load i32, ptr %8, align 4, !tbaa !8
  %15 = getelementptr inbounds nuw %struct.ma_waveform_config, ptr %0, i32 0, i32 0
  store i32 %14, ptr %15, align 8, !tbaa !1104
  %16 = load i32, ptr %9, align 4, !tbaa !8
  %17 = getelementptr inbounds nuw %struct.ma_waveform_config, ptr %0, i32 0, i32 1
  store i32 %16, ptr %17, align 4, !tbaa !1106
  %18 = load i32, ptr %10, align 4, !tbaa !8
  %19 = getelementptr inbounds nuw %struct.ma_waveform_config, ptr %0, i32 0, i32 2
  store i32 %18, ptr %19, align 8, !tbaa !1107
  %20 = load i32, ptr %11, align 4, !tbaa !8
  %21 = getelementptr inbounds nuw %struct.ma_waveform_config, ptr %0, i32 0, i32 3
  store i32 %20, ptr %21, align 4, !tbaa !1108
  %22 = load double, ptr %12, align 8, !tbaa !403
  %23 = getelementptr inbounds nuw %struct.ma_waveform_config, ptr %0, i32 0, i32 4
  store double %22, ptr %23, align 8, !tbaa !1109
  %24 = load double, ptr %13, align 8, !tbaa !403
  %25 = getelementptr inbounds nuw %struct.ma_waveform_config, ptr %0, i32 0, i32 5
  store double %24, ptr %25, align 8, !tbaa !1110
  ret void
}

; Function Attrs: nounwind uwtable
define void @ma_debug_fill_pcm_frames_with_sine_wave(ptr noundef %0, i32 noundef %1, i32 noundef %2, i32 noundef %3, i32 noundef %4) #0 {
  %6 = alloca ptr, align 8
  %7 = alloca i32, align 4
  %8 = alloca i32, align 4
  %9 = alloca i32, align 4
  %10 = alloca i32, align 4
  %11 = alloca %struct.ma_waveform_config, align 8
  %12 = alloca %struct.ma_waveform, align 8
  %13 = alloca %struct.ma_waveform_config, align 8
  store ptr %0, ptr %6, align 8, !tbaa !353
  store i32 %1, ptr %7, align 4, !tbaa !8
  store i32 %2, ptr %8, align 4, !tbaa !8
  store i32 %3, ptr %9, align 4, !tbaa !8
  store i32 %4, ptr %10, align 4, !tbaa !8
  call void @llvm.lifetime.start.p0(i64 32, ptr %11) #16
  call void @llvm.lifetime.start.p0(i64 120, ptr %12) #16
  call void @llvm.lifetime.start.p0(i64 32, ptr %13) #16
  %14 = load i32, ptr %8, align 4, !tbaa !8
  %15 = load i32, ptr %9, align 4, !tbaa !8
  %16 = load i32, ptr %10, align 4, !tbaa !8
  call void @ma_waveform_config_init(ptr dead_on_unwind writable sret(%struct.ma_waveform_config) align 8 %13, i32 noundef %14, i32 noundef %15, i32 noundef %16, i32 noundef 0, double noundef 1.000000e+00, double noundef 4.000000e+02)
  call void @llvm.memcpy.p0.p0.i64(ptr align 8 %11, ptr align 8 %13, i64 32, i1 false), !tbaa.struct !1111
  call void @llvm.lifetime.end.p0(i64 32, ptr %13) #16
  %17 = call i32 @ma_waveform_init(ptr noundef %11, ptr noundef %12)
  %18 = load ptr, ptr %6, align 8, !tbaa !353
  %19 = load i32, ptr %7, align 4, !tbaa !8
  %20 = zext i32 %19 to i64
  %21 = call i32 @ma_waveform_read_pcm_frames(ptr noundef %12, ptr noundef %18, i64 noundef %20, ptr noundef null)
  call void @llvm.lifetime.end.p0(i64 120, ptr %12) #16
  call void @llvm.lifetime.end.p0(i64 32, ptr %11) #16
  ret void
}