; Function Attrs: nofree nounwind memory(readwrite, inaccessiblemem: write) uwtable
define void @ma_debug_fill_pcm_frames_with_sine_wave(ptr noundef %0, i32 noundef %1, i32 noundef %2, i32 noundef %3, i32 noundef %4) local_unnamed_addr #38 {
  %6 = alloca %struct.ma_waveform, align 8
  call void @llvm.lifetime.start.p0(i64 120, ptr nonnull %6) #69
  %7 = getelementptr inbounds nuw i8, ptr %6, i64 8
  call void @llvm.memset.p0.i64(ptr noundef nonnull align 8 dereferenceable(112) %7, i8 0, i64 64, i1 false)
  store ptr @g_ma_waveform_data_source_vtable, ptr %6, align 8, !tbaa !351
  %8 = getelementptr inbounds nuw i8, ptr %6, i64 16
  store i64 -1, ptr %8, align 8, !tbaa !352
  %9 = getelementptr inbounds nuw i8, ptr %6, i64 32
  store i64 -1, ptr %9, align 8, !tbaa !353
  %10 = getelementptr inbounds nuw i8, ptr %6, i64 40
  store ptr %6, ptr %10, align 8, !tbaa !354
  %11 = getelementptr inbounds nuw i8, ptr %6, i64 48
  call void @llvm.memset.p0.i64(ptr noundef nonnull align 8 dereferenceable(16) %11, i8 0, i64 16, i1 false)
  %12 = getelementptr inbounds nuw i8, ptr %6, i64 72
  store i32 %2, ptr %12, align 8, !tbaa !3
  %.sroa.45.0..sroa_idx = getelementptr inbounds nuw i8, ptr %6, i64 76
  store i32 %3, ptr %.sroa.45.0..sroa_idx, align 4, !tbaa !3
  %.sroa.56.0..sroa_idx = getelementptr inbounds nuw i8, ptr %6, i64 80
  store i32 %4, ptr %.sroa.56.0..sroa_idx, align 8, !tbaa !3
  %.sroa.67.0..sroa_idx = getelementptr inbounds nuw i8, ptr %6, i64 84
  store i32 0, ptr %.sroa.67.0..sroa_idx, align 4, !tbaa !3
  %.sroa.78.0..sroa_idx = getelementptr inbounds nuw i8, ptr %6, i64 88
  store double 1.000000e+00, ptr %.sroa.78.0..sroa_idx, align 8, !tbaa !514
  %.sroa.89.0..sroa_idx = getelementptr inbounds nuw i8, ptr %6, i64 96
  store double 4.000000e+02, ptr %.sroa.89.0..sroa_idx, align 8, !tbaa !514
  %13 = uitofp i32 %4 to double
  %14 = fdiv double %13, 4.000000e+02
  %15 = fdiv double 1.000000e+00, %14
  %16 = getelementptr inbounds nuw i8, ptr %6, i64 104
  store double %15, ptr %16, align 8, !tbaa !1469
  %17 = getelementptr inbounds nuw i8, ptr %6, i64 112
  store double 0.000000e+00, ptr %17, align 8, !tbaa !1470
  %18 = zext i32 %1 to i64
  %19 = call i32 @ma_waveform_read_pcm_frames(ptr noundef nonnull %6, ptr noundef %0, i64 noundef %18, ptr noundef null)
  call void @llvm.lifetime.end.p0(i64 120, ptr nonnull %6) #69
  ret void
}